target datalayout = "e-m:e-p270:32:32-p271:32:32-p272:64:64-i64:64-i128:128-f80:128-n8:16:32:64-S128"
target triple = "x86_64-pc-linux-gnu"

; Function Attrs: nounwind uwtable
define internal void @pred4x4_horizontal_add_8_c(ptr noundef %0, ptr noundef %1, i64 noundef %2) #1 {
  %4 = alloca ptr, align 8
  %5 = alloca ptr, align 8
  %6 = alloca i64, align 8
  %7 = alloca i32, align 4
  %8 = alloca ptr, align 8
  %9 = alloca ptr, align 8
  %10 = alloca i8, align 1
  store ptr %0, ptr %4, align 8, !tbaa !12
  store ptr %1, ptr %5, align 8, !tbaa !16
  store i64 %2, ptr %6, align 8, !tbaa !14
  call void @llvm.lifetime.start.p0(i64 4, ptr %7) #9
  call void @llvm.lifetime.start.p0(i64 8, ptr %8) #9
  %11 = load ptr, ptr %4, align 8, !tbaa !12
  store ptr %11, ptr %8, align 8, !tbaa !12
  call void @llvm.lifetime.start.p0(i64 8, ptr %9) #9
  %12 = load ptr, ptr %5, align 8, !tbaa !16
  store ptr %12, ptr %9, align 8, !tbaa !16
  %13 = load i64, ptr %6, align 8, !tbaa !14
  %14 = ashr i64 %13, 0
  store i64 %14, ptr %6, align 8, !tbaa !14
  store i32 0, ptr %7, align 4, !tbaa !9
  br label %15

15:                                               ; preds = %67, %3
  %16 = load i32, ptr %7, align 4, !tbaa !9
  %17 = icmp slt i32 %16, 4
  br i1 %17, label %18, label %70

18:                                               ; preds = %15
  call void @llvm.lifetime.start.p0(i64 1, ptr %10) #9
  %19 = load ptr, ptr %8, align 8, !tbaa !12
  %20 = getelementptr inbounds i8, ptr %19, i64 -1
  %21 = load i8, ptr %20, align 1, !tbaa !18
  store i8 %21, ptr %10, align 1, !tbaa !18
  %22 = load ptr, ptr %9, align 8, !tbaa !16
  %23 = getelementptr inbounds i16, ptr %22, i64 0
  %24 = load i16, ptr %23, align 2, !tbaa !19
  %25 = sext i16 %24 to i32
  %26 = load i8, ptr %10, align 1, !tbaa !18
  %27 = zext i8 %26 to i32
  %28 = add nsw i32 %27, %25
  %29 = trunc i32 %28 to i8
  store i8 %29, ptr %10, align 1, !tbaa !18
  %30 = load ptr, ptr %8, align 8, !tbaa !12
  %31 = getelementptr inbounds i8, ptr %30, i64 0
  store i8 %29, ptr %31, align 1, !tbaa !18
  %32 = load ptr, ptr %9, align 8, !tbaa !16
  %33 = getelementptr inbounds i16, ptr %32, i64 1
  %34 = load i16, ptr %33, align 2, !tbaa !19
  %35 = sext i16 %34 to i32
  %36 = load i8, ptr %10, align 1, !tbaa !18
  %37 = zext i8 %36 to i32
  %38 = add nsw i32 %37, %35
  %39 = trunc i32 %38 to i8
  store i8 %39, ptr %10, align 1, !tbaa !18
  %40 = load ptr, ptr %8, align 8, !tbaa !12
  %41 = getelementptr inbounds i8, ptr %40, i64 1
  store i8 %39, ptr %41, align 1, !tbaa !18
  %42 = load ptr, ptr %9, align 8, !tbaa !16
  %43 = getelementptr inbounds i16, ptr %42, i64 2
  %44 = load i16, ptr %43, align 2, !tbaa !19
  %45 = sext i16 %44 to i32
  %46 = load i8, ptr %10, align 1, !tbaa !18
  %47 = zext i8 %46 to i32
  %48 = add nsw i32 %47, %45
  %49 = trunc i32 %48 to i8
  store i8 %49, ptr %10, align 1, !tbaa !18
  %50 = load ptr, ptr %8, align 8, !tbaa !12
  %51 = getelementptr inbounds i8, ptr %50, i64 2
  store i8 %49, ptr %51, align 1, !tbaa !18
  %52 = load i8, ptr %10, align 1, !tbaa !18
  %53 = zext i8 %52 to i32
  %54 = load ptr, ptr %9, align 8, !tbaa !16
  %55 = getelementptr inbounds i16, ptr %54, i64 3
  %56 = load i16, ptr %55, align 2, !tbaa !19
  %57 = sext i16 %56 to i32
  %58 = add nsw i32 %53, %57
  %59 = trunc i32 %58 to i8
  %60 = load ptr, ptr %8, align 8, !tbaa !12
  %61 = getelementptr inbounds i8, ptr %60, i64 3
  store i8 %59, ptr %61, align 1, !tbaa !18
  %62 = load i64, ptr %6, align 8, !tbaa !14
  %63 = load ptr, ptr %8, align 8, !tbaa !12
  %64 = getelementptr inbounds i8, ptr %63, i64 %62
  store ptr %64, ptr %8, align 8, !tbaa !12
  %65 = load ptr, ptr %9, align 8, !tbaa !16
  %66 = getelementptr inbounds i16, ptr %65, i64 4
  store ptr %66, ptr %9, align 8, !tbaa !16
  call void @llvm.lifetime.end.p0(i64 1, ptr %10) #9
  br label %67

67:                                               ; preds = %18
  %68 = load i32, ptr %7, align 4, !tbaa !9
  %69 = add nsw i32 %68, 1
  store i32 %69, ptr %7, align 4, !tbaa !9
  br label %15, !llvm.loop !293

70:                                               ; preds = %15
  %71 = load ptr, ptr %5, align 8, !tbaa !16
  call void @llvm.memset.p0.i64(ptr align 2 %71, i8 0, i64 32, i1 false)
  call void @llvm.lifetime.end.p0(i64 8, ptr %9) #9
  call void @llvm.lifetime.end.p0(i64 8, ptr %8) #9
  call void @llvm.lifetime.end.p0(i64 4, ptr %7) #9
  ret void
}

; Function Attrs: nounwind uwtable
define internal void @pred8x16_horizontal_add_8_c(ptr noundef %0, ptr noundef %1, ptr noundef %2, i64 noundef %3) #1 {
  %5 = alloca ptr, align 8
  %6 = alloca ptr, align 8
  %7 = alloca ptr, align 8
  %8 = alloca i64, align 8
  %9 = alloca i32, align 4
  store ptr %0, ptr %5, align 8, !tbaa !12
  store ptr %1, ptr %6, align 8, !tbaa !63
  store ptr %2, ptr %7, align 8, !tbaa !16
  store i64 %3, ptr %8, align 8, !tbaa !14
  call void @llvm.lifetime.start.p0(i64 4, ptr %9) #9
  store i32 0, ptr %9, align 4, !tbaa !9
  br label %10

10:                                               ; preds = %29, %4
  %11 = load i32, ptr %9, align 4, !tbaa !9
  %12 = icmp slt i32 %11, 4
  br i1 %12, label %13, label %32

13:                                               ; preds = %10
  %14 = load ptr, ptr %5, align 8, !tbaa !12
  %15 = load ptr, ptr %6, align 8, !tbaa !63
  %16 = load i32, ptr %9, align 4, !tbaa !9
  %17 = sext i32 %16 to i64
  %18 = getelementptr inbounds i32, ptr %15, i64 %17
  %19 = load i32, ptr %18, align 4, !tbaa !9
  %20 = sext i32 %19 to i64
  %21 = getelementptr inbounds i8, ptr %14, i64 %20
  %22 = load ptr, ptr %7, align 8, !tbaa !16
  %23 = load i32, ptr %9, align 4, !tbaa !9
  %24 = mul nsw i32 %23, 16
  %25 = sext i32 %24 to i64
  %26 = mul i64 %25, 1
  %27 = getelementptr inbounds nuw i16, ptr %22, i64 %26
  %28 = load i64, ptr %8, align 8, !tbaa !14
  call void @pred4x4_horizontal_add_8_c(ptr noundef %21, ptr noundef %27, i64 noundef %28)
  br label %29

29:                                               ; preds = %13
  %30 = load i32, ptr %9, align 4, !tbaa !9
  %31 = add nsw i32 %30, 1
  store i32 %31, ptr %9, align 4, !tbaa !9
  br label %10, !llvm.loop !302

32:                                               ; preds = %10
  store i32 4, ptr %9, align 4, !tbaa !9
  br label %33

33:                                               ; preds = %53, %32
  %34 = load i32, ptr %9, align 4, !tbaa !9
  %35 = icmp slt i32 %34, 8
  br i1 %35, label %36, label %56

36:                                               ; preds = %33
  %37 = load ptr, ptr %5, align 8, !tbaa !12
  %38 = load ptr, ptr %6, align 8, !tbaa !63
  %39 = load i32, ptr %9, align 4, !tbaa !9
  %40 = add nsw i32 %39, 4
  %41 = sext i32 %40 to i64
  %42 = getelementptr inbounds i32, ptr %38, i64 %41
  %43 = load i32, ptr %42, align 4, !tbaa !9
  %44 = sext i32 %43 to i64
  %45 = getelementptr inbounds i8, ptr %37, i64 %44
  %46 = load ptr, ptr %7, align 8, !tbaa !16
  %47 = load i32, ptr %9, align 4, !tbaa !9
  %48 = mul nsw i32 %47, 16
  %49 = sext i32 %48 to i64
  %50 = mul i64 %49, 1
  %51 = getelementptr inbounds nuw i16, ptr %46, i64 %50
  %52 = load i64, ptr %8, align 8, !tbaa !14
  call void @pred4x4_horizontal_add_8_c(ptr noundef %45, ptr noundef %51, i64 noundef %52)
  br label %53

53:                                               ; preds = %36
  %54 = load i32, ptr %9, align 4, !tbaa !9
  %55 = add nsw i32 %54, 1
  store i32 %55, ptr %9, align 4, !tbaa !9
  br label %33, !llvm.loop !303

56:                                               ; preds = %33
  call void @llvm.lifetime.end.p0(i64 4, ptr %9) #9
  ret void
}